target datalayout = "e-m:e-p270:32:32-p271:32:32-p272:64:64-i64:64-i128:128-f80:128-n8:16:32:64-S128"
target triple = "x86_64-pc-linux-gnu"

%struct.md4_state_st = type { [4 x i32], i32, i32, [64 x i8], i32 }

; Function Attrs: nounwind uwtable
define hidden i32 @MD4_Final(ptr noundef %0, ptr noundef %1) #0 {
  %3 = alloca ptr, align 8
  %4 = alloca ptr, align 8
  %5 = alloca i64, align 8
  %6 = alloca ptr, align 8
  %7 = alloca i32, align 4
  store ptr %0, ptr %3, align 8, !tbaa !6
  store ptr %1, ptr %4, align 8, !tbaa !13
  call void @llvm.lifetime.start.p0(i64 8, ptr %5) #4
  %8 = load ptr, ptr %4, align 8, !tbaa !13
  %9 = getelementptr inbounds nuw %struct.md4_state_st, ptr %8, i32 0, i32 4
  %10 = load i32, ptr %9, align 4, !tbaa !21
  %11 = zext i32 %10 to i64
  store i64 %11, ptr %5, align 8, !tbaa !11
  %12 = load ptr, ptr %4, align 8, !tbaa !13
  %13 = getelementptr inbounds nuw %struct.md4_state_st, ptr %12, i32 0, i32 3
  %14 = load i64, ptr %5, align 8, !tbaa !11
  %15 = getelementptr inbounds nuw [64 x i8], ptr %13, i64 0, i64 %14
  store i8 -128, ptr %15, align 1, !tbaa !22
  %16 = load i64, ptr %5, align 8, !tbaa !11
  %17 = add i64 %16, 1
  store i64 %17, ptr %5, align 8, !tbaa !11
  %18 = load i64, ptr %5, align 8, !tbaa !11
  %19 = icmp ugt i64 %18, 56
  br i1 %19, label %20, label %34

20:                                               ; preds = %2
  %21 = load ptr, ptr %4, align 8, !tbaa !13
  %22 = getelementptr inbounds nuw %struct.md4_state_st, ptr %21, i32 0, i32 3
  %23 = getelementptr inbounds [64 x i8], ptr %22, i64 0, i64 0
  %24 = load i64, ptr %5, align 8, !tbaa !11
  %25 = getelementptr inbounds nuw i8, ptr %23, i64 %24
  %26 = load i64, ptr %5, align 8, !tbaa !11
  %27 = sub i64 64, %26
  call void @llvm.memset.p0.i64(ptr align 1 %25, i8 0, i64 %27, i1 false)
  store i64 0, ptr %5, align 8, !tbaa !11
  %28 = load ptr, ptr %4, align 8, !tbaa !13
  %29 = getelementptr inbounds nuw %struct.md4_state_st, ptr %28, i32 0, i32 0
  %30 = getelementptr inbounds [4 x i32], ptr %29, i64 0, i64 0
  %31 = load ptr, ptr %4, align 8, !tbaa !13
  %32 = getelementptr inbounds nuw %struct.md4_state_st, ptr %31, i32 0, i32 3
  %33 = getelementptr inbounds [64 x i8], ptr %32, i64 0, i64 0
  call void @md4_block_data_order(ptr noundef %30, ptr noundef %33, i64 noundef 1)
  br label %34

34:                                               ; preds = %20, %2
  %35 = load ptr, ptr %4, align 8, !tbaa !13
  %36 = getelementptr inbounds nuw %struct.md4_state_st, ptr %35, i32 0, i32 3
  %37 = getelementptr inbounds [64 x i8], ptr %36, i64 0, i64 0
  %38 = load i64, ptr %5, align 8, !tbaa !11
  %39 = getelementptr inbounds nuw i8, ptr %37, i64 %38
  %40 = load i64, ptr %5, align 8, !tbaa !11
  %41 = sub i64 56, %40
  call void @llvm.memset.p0.i64(ptr align 1 %39, i8 0, i64 %41, i1 false)
  call void @llvm.lifetime.start.p0(i64 8, ptr %6) #4
  %42 = load ptr, ptr %4, align 8, !tbaa !13
  %43 = getelementptr inbounds nuw %struct.md4_state_st, ptr %42, i32 0, i32 3
  %44 = getelementptr inbounds [64 x i8], ptr %43, i64 0, i64 0
  %45 = getelementptr inbounds i8, ptr %44, i64 64
  %46 = getelementptr inbounds i8, ptr %45, i64 -8
  store ptr %46, ptr %6, align 8, !tbaa !6
  %47 = load ptr, ptr %4, align 8, !tbaa !13
  %48 = getelementptr inbounds nuw %struct.md4_state_st, ptr %47, i32 0, i32 1
  %49 = load i32, ptr %48, align 4, !tbaa !18
  %50 = and i32 %49, 255
  %51 = trunc i32 %50 to i8
  %52 = load ptr, ptr %6, align 8, !tbaa !6
  %53 = getelementptr inbounds nuw i8, ptr %52, i32 1
  store ptr %53, ptr %6, align 8, !tbaa !6
  store i8 %51, ptr %52, align 1, !tbaa !22
  %54 = load ptr, ptr %4, align 8, !tbaa !13
  %55 = getelementptr inbounds nuw %struct.md4_state_st, ptr %54, i32 0, i32 1
  %56 = load i32, ptr %55, align 4, !tbaa !18
  %57 = lshr i32 %56, 8
  %58 = and i32 %57, 255
  %59 = trunc i32 %58 to i8
  %60 = load ptr, ptr %6, align 8, !tbaa !6
  %61 = getelementptr inbounds nuw i8, ptr %60, i32 1
  store ptr %61, ptr %6, align 8, !tbaa !6
  store i8 %59, ptr %60, align 1, !tbaa !22
  %62 = load ptr, ptr %4, align 8, !tbaa !13
  %63 = getelementptr inbounds nuw %struct.md4_state_st, ptr %62, i32 0, i32 1
  %64 = load i32, ptr %63, align 4, !tbaa !18
  %65 = lshr i32 %64, 16
  %66 = and i32 %65, 255
  %67 = trunc i32 %66 to i8
  %68 = load ptr, ptr %6, align 8, !tbaa !6
  %69 = getelementptr inbounds nuw i8, ptr %68, i32 1
  store ptr %69, ptr %6, align 8, !tbaa !6
  store i8 %67, ptr %68, align 1, !tbaa !22
  %70 = load ptr, ptr %4, align 8, !tbaa !13
  %71 = getelementptr inbounds nuw %struct.md4_state_st, ptr %70, i32 0, i32 1
  %72 = load i32, ptr %71, align 4, !tbaa !18
  %73 = lshr i32 %72, 24
  %74 = and i32 %73, 255
  %75 = trunc i32 %74 to i8
  %76 = load ptr, ptr %6, align 8, !tbaa !6
  %77 = getelementptr inbounds nuw i8, ptr %76, i32 1
  store ptr %77, ptr %6, align 8, !tbaa !6
  store i8 %75, ptr %76, align 1, !tbaa !22
  %78 = load ptr, ptr %4, align 8, !tbaa !13
  %79 = getelementptr inbounds nuw %struct.md4_state_st, ptr %78, i32 0, i32 2
  %80 = load i32, ptr %79, align 4, !tbaa !20
  %81 = and i32 %80, 255
  %82 = trunc i32 %81 to i8
  %83 = load ptr, ptr %6, align 8, !tbaa !6
  %84 = getelementptr inbounds nuw i8, ptr %83, i32 1
  store ptr %84, ptr %6, align 8, !tbaa !6
  store i8 %82, ptr %83, align 1, !tbaa !22
  %85 = load ptr, ptr %4, align 8, !tbaa !13
  %86 = getelementptr inbounds nuw %struct.md4_state_st, ptr %85, i32 0, i32 2
  %87 = load i32, ptr %86, align 4, !tbaa !20
  %88 = lshr i32 %87, 8
  %89 = and i32 %88, 255
  %90 = trunc i32 %89 to i8
  %91 = load ptr, ptr %6, align 8, !tbaa !6
  %92 = getelementptr inbounds nuw i8, ptr %91, i32 1
  store ptr %92, ptr %6, align 8, !tbaa !6
  store i8 %90, ptr %91, align 1, !tbaa !22
  %93 = load ptr, ptr %4, align 8, !tbaa !13
  %94 = getelementptr inbounds nuw %struct.md4_state_st, ptr %93, i32 0, i32 2
  %95 = load i32, ptr %94, align 4, !tbaa !20
  %96 = lshr i32 %95, 16
  %97 = and i32 %96, 255
  %98 = trunc i32 %97 to i8
  %99 = load ptr, ptr %6, align 8, !tbaa !6
  %100 = getelementptr inbounds nuw i8, ptr %99, i32 1
  store ptr %100, ptr %6, align 8, !tbaa !6
  store i8 %98, ptr %99, align 1, !tbaa !22
  %101 = load ptr, ptr %4, align 8, !tbaa !13
  %102 = getelementptr inbounds nuw %struct.md4_state_st, ptr %101, i32 0, i32 2
  %103 = load i32, ptr %102, align 4, !tbaa !20
  %104 = lshr i32 %103, 24
  %105 = and i32 %104, 255
  %106 = trunc i32 %105 to i8
  %107 = load ptr, ptr %6, align 8, !tbaa !6
  %108 = getelementptr inbounds nuw i8, ptr %107, i32 1
  store ptr %108, ptr %6, align 8, !tbaa !6
  store i8 %106, ptr %107, align 1, !tbaa !22
  %109 = load ptr, ptr %4, align 8, !tbaa !13
  %110 = getelementptr inbounds nuw %struct.md4_state_st, ptr %109, i32 0, i32 0
  %111 = getelementptr inbounds [4 x i32], ptr %110, i64 0, i64 0
  %112 = load ptr, ptr %4, align 8, !tbaa !13
  %113 = getelementptr inbounds nuw %struct.md4_state_st, ptr %112, i32 0, i32 3
  %114 = getelementptr inbounds [64 x i8], ptr %113, i64 0, i64 0
  call void @md4_block_data_order(ptr noundef %111, ptr noundef %114, i64 noundef 1)
  %115 = load ptr, ptr %4, align 8, !tbaa !13
  %116 = getelementptr inbounds nuw %struct.md4_state_st, ptr %115, i32 0, i32 4
  store i32 0, ptr %116, align 4, !tbaa !21
  %117 = load ptr, ptr %4, align 8, !tbaa !13
  %118 = getelementptr inbounds nuw %struct.md4_state_st, ptr %117, i32 0, i32 3
  %119 = getelementptr inbounds [64 x i8], ptr %118, i64 0, i64 0
  call void @llvm.memset.p0.i64(ptr align 4 %119, i8 0, i64 64, i1 false)
  br label %120

120:                                              ; preds = %34
  call void @llvm.lifetime.start.p0(i64 4, ptr %7) #4
  %121 = load ptr, ptr %4, align 8, !tbaa !13
  %122 = getelementptr inbounds nuw %struct.md4_state_st, ptr %121, i32 0, i32 0
  %123 = getelementptr inbounds [4 x i32], ptr %122, i64 0, i64 0
  %124 = load i32, ptr %123, align 4, !tbaa !15
  store i32 %124, ptr %7, align 4, !tbaa !15
  %125 = load i32, ptr %7, align 4, !tbaa !15
  %126 = and i32 %125, 255
  %127 = trunc i32 %126 to i8
  %128 = load ptr, ptr %3, align 8, !tbaa !6
  %129 = getelementptr inbounds nuw i8, ptr %128, i32 1
  store ptr %129, ptr %3, align 8, !tbaa !6
  store i8 %127, ptr %128, align 1, !tbaa !22
  %130 = load i32, ptr %7, align 4, !tbaa !15
  %131 = lshr i32 %130, 8
  %132 = and i32 %131, 255
  %133 = trunc i32 %132 to i8
  %134 = load ptr, ptr %3, align 8, !tbaa !6
  %135 = getelementptr inbounds nuw i8, ptr %134, i32 1
  store ptr %135, ptr %3, align 8, !tbaa !6
  store i8 %133, ptr %134, align 1, !tbaa !22
  %136 = load i32, ptr %7, align 4, !tbaa !15
  %137 = lshr i32 %136, 16
  %138 = and i32 %137, 255
  %139 = trunc i32 %138 to i8
  %140 = load ptr, ptr %3, align 8, !tbaa !6
  %141 = getelementptr inbounds nuw i8, ptr %140, i32 1
  store ptr %141, ptr %3, align 8, !tbaa !6
  store i8 %139, ptr %140, align 1, !tbaa !22
  %142 = load i32, ptr %7, align 4, !tbaa !15
  %143 = lshr i32 %142, 24
  %144 = and i32 %143, 255
  %145 = trunc i32 %144 to i8
  %146 = load ptr, ptr %3, align 8, !tbaa !6
  %147 = getelementptr inbounds nuw i8, ptr %146, i32 1
  store ptr %147, ptr %3, align 8, !tbaa !6
  store i8 %145, ptr %146, align 1, !tbaa !22
  %148 = load ptr, ptr %4, align 8, !tbaa !13
  %149 = getelementptr inbounds nuw %struct.md4_state_st, ptr %148, i32 0, i32 0
  %150 = getelementptr inbounds [4 x i32], ptr %149, i64 0, i64 1
  %151 = load i32, ptr %150, align 4, !tbaa !15
  store i32 %151, ptr %7, align 4, !tbaa !15
  %152 = load i32, ptr %7, align 4, !tbaa !15
  %153 = and i32 %152, 255
  %154 = trunc i32 %153 to i8
  %155 = load ptr, ptr %3, align 8, !tbaa !6
  %156 = getelementptr inbounds nuw i8, ptr %155, i32 1
  store ptr %156, ptr %3, align 8, !tbaa !6
  store i8 %154, ptr %155, align 1, !tbaa !22
  %157 = load i32, ptr %7, align 4, !tbaa !15
  %158 = lshr i32 %157, 8
  %159 = and i32 %158, 255
  %160 = trunc i32 %159 to i8
  %161 = load ptr, ptr %3, align 8, !tbaa !6
  %162 = getelementptr inbounds nuw i8, ptr %161, i32 1
  store ptr %162, ptr %3, align 8, !tbaa !6
  store i8 %160, ptr %161, align 1, !tbaa !22
  %163 = load i32, ptr %7, align 4, !tbaa !15
  %164 = lshr i32 %163, 16
  %165 = and i32 %164, 255
  %166 = trunc i32 %165 to i8
  %167 = load ptr, ptr %3, align 8, !tbaa !6
  %168 = getelementptr inbounds nuw i8, ptr %167, i32 1
  store ptr %168, ptr %3, align 8, !tbaa !6
  store i8 %166, ptr %167, align 1, !tbaa !22
  %169 = load i32, ptr %7, align 4, !tbaa !15
  %170 = lshr i32 %169, 24
  %171 = and i32 %170, 255
  %172 = trunc i32 %171 to i8
  %173 = load ptr, ptr %3, align 8, !tbaa !6
  %174 = getelementptr inbounds nuw i8, ptr %173, i32 1
  store ptr %174, ptr %3, align 8, !tbaa !6
  store i8 %172, ptr %173, align 1, !tbaa !22
  %175 = load ptr, ptr %4, align 8, !tbaa !13
  %176 = getelementptr inbounds nuw %struct.md4_state_st, ptr %175, i32 0, i32 0
  %177 = getelementptr inbounds [4 x i32], ptr %176, i64 0, i64 2
  %178 = load i32, ptr %177, align 4, !tbaa !15
  store i32 %178, ptr %7, align 4, !tbaa !15
  %179 = load i32, ptr %7, align 4, !tbaa !15
  %180 = and i32 %179, 255
  %181 = trunc i32 %180 to i8
  %182 = load ptr, ptr %3, align 8, !tbaa !6
  %183 = getelementptr inbounds nuw i8, ptr %182, i32 1
  store ptr %183, ptr %3, align 8, !tbaa !6
  store i8 %181, ptr %182, align 1, !tbaa !22
  %184 = load i32, ptr %7, align 4, !tbaa !15
  %185 = lshr i32 %184, 8
  %186 = and i32 %185, 255
  %187 = trunc i32 %186 to i8
  %188 = load ptr, ptr %3, align 8, !tbaa !6
  %189 = getelementptr inbounds nuw i8, ptr %188, i32 1
  store ptr %189, ptr %3, align 8, !tbaa !6
  store i8 %187, ptr %188, align 1, !tbaa !22
  %190 = load i32, ptr %7, align 4, !tbaa !15
  %191 = lshr i32 %190, 16
  %192 = and i32 %191, 255
  %193 = trunc i32 %192 to i8
  %194 = load ptr, ptr %3, align 8, !tbaa !6
  %195 = getelementptr inbounds nuw i8, ptr %194, i32 1
  store ptr %195, ptr %3, align 8, !tbaa !6
  store i8 %193, ptr %194, align 1, !tbaa !22
  %196 = load i32, ptr %7, align 4, !tbaa !15
  %197 = lshr i32 %196, 24
  %198 = and i32 %197, 255
  %199 = trunc i32 %198 to i8
  %200 = load ptr, ptr %3, align 8, !tbaa !6
  %201 = getelementptr inbounds nuw i8, ptr %200, i32 1
  store ptr %201, ptr %3, align 8, !tbaa !6
  store i8 %199, ptr %200, align 1, !tbaa !22
  %202 = load ptr, ptr %4, align 8, !tbaa !13
  %203 = getelementptr inbounds nuw %struct.md4_state_st, ptr %202, i32 0, i32 0
  %204 = getelementptr inbounds [4 x i32], ptr %203, i64 0, i64 3
  %205 = load i32, ptr %204, align 4, !tbaa !15
  store i32 %205, ptr %7, align 4, !tbaa !15
  %206 = load i32, ptr %7, align 4, !tbaa !15
  %207 = and i32 %206, 255
  %208 = trunc i32 %207 to i8
  %209 = load ptr, ptr %3, align 8, !tbaa !6
  %210 = getelementptr inbounds nuw i8, ptr %209, i32 1
  store ptr %210, ptr %3, align 8, !tbaa !6
  store i8 %208, ptr %209, align 1, !tbaa !22
  %211 = load i32, ptr %7, align 4, !tbaa !15
  %212 = lshr i32 %211, 8
  %213 = and i32 %212, 255
  %214 = trunc i32 %213 to i8
  %215 = load ptr, ptr %3, align 8, !tbaa !6
  %216 = getelementptr inbounds nuw i8, ptr %215, i32 1
  store ptr %216, ptr %3, align 8, !tbaa !6
  store i8 %214, ptr %215, align 1, !tbaa !22
  %217 = load i32, ptr %7, align 4, !tbaa !15
  %218 = lshr i32 %217, 16
  %219 = and i32 %218, 255
  %220 = trunc i32 %219 to i8
  %221 = load ptr, ptr %3, align 8, !tbaa !6
  %222 = getelementptr inbounds nuw i8, ptr %221, i32 1
  store ptr %222, ptr %3, align 8, !tbaa !6
  store i8 %220, ptr %221, align 1, !tbaa !22
  %223 = load i32, ptr %7, align 4, !tbaa !15
  %224 = lshr i32 %223, 24
  %225 = and i32 %224, 255
  %226 = trunc i32 %225 to i8
  %227 = load ptr, ptr %3, align 8, !tbaa !6
  %228 = getelementptr inbounds nuw i8, ptr %227, i32 1
  store ptr %228, ptr %3, align 8, !tbaa !6
  store i8 %226, ptr %227, align 1, !tbaa !22
  call void @llvm.lifetime.end.p0(i64 4, ptr %7) #4
  br label %229

229:                                              ; preds = %120
  br label %230

230:                                              ; preds = %229
  call void @llvm.lifetime.end.p0(i64 8, ptr %6) #4
  call void @llvm.lifetime.end.p0(i64 8, ptr %5) #4
  ret i32 1
}